target datalayout = "e-m:e-p270:32:32-p271:32:32-p272:64:64-i64:64-i128:128-f80:128-n8:16:32:64-S128"
target triple = "x86_64-pc-linux-gnu"

@.str.3 = private unnamed_addr constant [2 x i8] c"\0A\00", align 1
@.str.4 = private unnamed_addr constant [42 x i8] c"    tee [-q] [-o logfile|-a logfile] cmd\0A\00", align 1
@.str.5 = private unnamed_addr constant [78 x i8] c"Execute the specified command, optionally writing the commands output to the\0A\00", align 1
@.str.6 = private unnamed_addr constant [23 x i8] c"specified logfile(s).\0A\00", align 1
@.str.7 = private unnamed_addr constant [8 x i8] c"    -q\0A\00", align 1
@.str.8 = private unnamed_addr constant [82 x i8] c"        Do not print output to the normal destination (console and/or log file).\0A\00", align 1
@.str.9 = private unnamed_addr constant [16 x i8] c"    -o logfile\0A\00", align 1
@.str.10 = private unnamed_addr constant [56 x i8] c"        Write output to this file, truncate if exists.\0A\00", align 1
@.str.11 = private unnamed_addr constant [16 x i8] c"    -a logfile\0A\00", align 1
@.str.12 = private unnamed_addr constant [54 x i8] c"        Write output to this file, append if exists.\0A\00", align 1
@.str.13 = private unnamed_addr constant [19 x i8] c"    -s scratchpad\0A\00", align 1
@.str.14 = private unnamed_addr constant [71 x i8] c"        Write output to this scratchpad value, truncate if it exists.\0A\00", align 1
@.str.15 = private unnamed_addr constant [16 x i8] c"    +INT, -INT\0A\00", align 1
@.str.16 = private unnamed_addr constant [64 x i8] c"        Add/subtract INT from the -v setting for this command.\0A\00", align 1

; Function Attrs: mustprogress uwtable
define internal void @_ZN12_GLOBAL__N_17TeePass4helpEv(ptr noundef nonnull align 8 dereferenceable(104) %0) unnamed_addr #4 align 2 {
  %2 = alloca ptr, align 8
  store ptr %0, ptr %2, align 8
  call void (ptr, ...) @_ZN5Yosys3logEPKcz(ptr noundef @.str.3)
  call void (ptr, ...) @_ZN5Yosys3logEPKcz(ptr noundef @.str.4)
  call void (ptr, ...) @_ZN5Yosys3logEPKcz(ptr noundef @.str.3)
  call void (ptr, ...) @_ZN5Yosys3logEPKcz(ptr noundef @.str.5)
  call void (ptr, ...) @_ZN5Yosys3logEPKcz(ptr noundef @.str.6)
  call void (ptr, ...) @_ZN5Yosys3logEPKcz(ptr noundef @.str.3)
  call void (ptr, ...) @_ZN5Yosys3logEPKcz(ptr noundef @.str.7)
  call void (ptr, ...) @_ZN5Yosys3logEPKcz(ptr noundef @.str.8)
  call void (ptr, ...) @_ZN5Yosys3logEPKcz(ptr noundef @.str.3)
  call void (ptr, ...) @_ZN5Yosys3logEPKcz(ptr noundef @.str.9)
  call void (ptr, ...) @_ZN5Yosys3logEPKcz(ptr noundef @.str.10)
  call void (ptr, ...) @_ZN5Yosys3logEPKcz(ptr noundef @.str.3)
  call void (ptr, ...) @_ZN5Yosys3logEPKcz(ptr noundef @.str.11)
  call void (ptr, ...) @_ZN5Yosys3logEPKcz(ptr noundef @.str.12)
  call void (ptr, ...) @_ZN5Yosys3logEPKcz(ptr noundef @.str.3)
  call void (ptr, ...) @_ZN5Yosys3logEPKcz(ptr noundef @.str.13)
  call void (ptr, ...) @_ZN5Yosys3logEPKcz(ptr noundef @.str.14)
  call void (ptr, ...) @_ZN5Yosys3logEPKcz(ptr noundef @.str.3)
  call void (ptr, ...) @_ZN5Yosys3logEPKcz(ptr noundef @.str.15)
  call void (ptr, ...) @_ZN5Yosys3logEPKcz(ptr noundef @.str.16)
  call void (ptr, ...) @_ZN5Yosys3logEPKcz(ptr noundef @.str.3)
  ret void
}